; Function Attrs: mustprogress nofree norecurse nosync nounwind willreturn memory(argmem: read) uwtable
define range(i32 0, 16) i32 @lv_indev_get_scroll_dir(ptr noundef readonly captures(address_is_null) %0) local_unnamed_addr #6 {
  %2 = icmp eq ptr %0, null
  br i1 %2, label %10, label %3

3:                                                ; preds = %1
  %4 = load i32, ptr %0, align 8, !tbaa !23
  switch i32 %4, label %10 [
    i32 1, label %5
    i32 3, label %5
  ]

5:                                                ; preds = %3, %3
  %6 = getelementptr inbounds nuw i8, ptr %0, i64 228
  %7 = load i16, ptr %6, align 4
  %8 = and i16 %7, 15
  %9 = zext nneg i16 %8 to i32
  br label %10

10:                                               ; preds = %3, %1, %5
  %.0 = phi i32 [ %9, %5 ], [ 0, %1 ], [ 0, %3 ]
  ret i32 %.0
}